target datalayout = "e-m:e-p270:32:32-p271:32:32-p272:64:64-i64:64-i128:128-f80:128-n8:16:32:64-S128"
target triple = "x86_64-pc-linux-gnu"

%union.anon.4 = type { ptr }

@H5_libinit_g = external global i8, align 1
@H5_libterm_g = external global i8, align 1
@H5T_C_S1_g = external global i64, align 8

; Function Attrs: nounwind uwtable
define i32 @H5LT_set_attribute_string(i64 noundef %0, ptr noundef %1, ptr noundef %2) #0 {
  %4 = alloca i32, align 4
  %5 = alloca i64, align 8
  %6 = alloca ptr, align 8
  %7 = alloca ptr, align 8
  %8 = alloca i64, align 8
  %9 = alloca i64, align 8
  %10 = alloca i64, align 8
  %11 = alloca i32, align 4
  %12 = alloca i64, align 8
  %13 = alloca i32, align 4
  %14 = alloca i32, align 4
  %15 = alloca %union.anon.4, align 8
  %16 = alloca ptr, align 8
  store i64 %0, ptr %5, align 8, !tbaa !3
  store ptr %1, ptr %6, align 8, !tbaa !7
  store ptr %2, ptr %7, align 8, !tbaa !7
  call void @llvm.lifetime.start.p0(i64 8, ptr %8) #11
  call void @llvm.lifetime.start.p0(i64 8, ptr %9) #11
  store i64 -1, ptr %9, align 8, !tbaa !3
  call void @llvm.lifetime.start.p0(i64 8, ptr %10) #11
  store i64 -1, ptr %10, align 8, !tbaa !3
  call void @llvm.lifetime.start.p0(i64 4, ptr %11) #11
  call void @llvm.lifetime.start.p0(i64 8, ptr %12) #11
  %17 = load i64, ptr %5, align 8, !tbaa !3
  %18 = load ptr, ptr %6, align 8, !tbaa !7
  %19 = call i32 @H5Aexists(i64 noundef %17, ptr noundef %18)
  store i32 %19, ptr %11, align 4, !tbaa !10
  %20 = icmp slt i32 %19, 0
  br i1 %20, label %21, label %22

21:                                               ; preds = %3
  store i32 -1, ptr %4, align 4
  store i32 1, ptr %13, align 4
  br label %132

22:                                               ; preds = %3
  %23 = load i32, ptr %11, align 4, !tbaa !10
  %24 = icmp sgt i32 %23, 0
  br i1 %24, label %25, label %32

25:                                               ; preds = %22
  %26 = load i64, ptr %5, align 8, !tbaa !3
  %27 = load ptr, ptr %6, align 8, !tbaa !7
  %28 = call i32 @H5Adelete(i64 noundef %26, ptr noundef %27)
  %29 = icmp slt i32 %28, 0
  br i1 %29, label %30, label %31

30:                                               ; preds = %25
  store i32 -1, ptr %4, align 4
  store i32 1, ptr %13, align 4
  br label %132

31:                                               ; preds = %25
  br label %32

32:                                               ; preds = %31, %22
  %33 = load i8, ptr @H5_libinit_g, align 1, !tbaa !16, !range !18, !noundef !19
  %34 = trunc i8 %33 to i1
  br i1 %34, label %39, label %35

35:                                               ; preds = %32
  %36 = load i8, ptr @H5_libterm_g, align 1, !tbaa !16, !range !18, !noundef !19
  %37 = trunc i8 %36 to i1
  %38 = xor i1 %37, true
  br label %39

39:                                               ; preds = %35, %32
  %40 = phi i1 [ false, %32 ], [ %38, %35 ]
  %41 = xor i1 %40, true
  %42 = xor i1 %41, true
  %43 = zext i1 %42 to i32
  %44 = sext i32 %43 to i64
  %45 = call i64 @llvm.expect.i64(i64 %44, i64 0)
  %46 = icmp ne i64 %45, 0
  br i1 %46, label %47, label %49

47:                                               ; preds = %39
  %48 = call i32 @H5open()
  br label %50

49:                                               ; preds = %39
  br label %50

50:                                               ; preds = %49, %47
  %51 = load i64, ptr @H5T_C_S1_g, align 8, !tbaa !3
  %52 = call i64 @H5Tcopy(i64 noundef %51)
  store i64 %52, ptr %8, align 8, !tbaa !3
  %53 = icmp slt i64 %52, 0
  br i1 %53, label %54, label %55

54:                                               ; preds = %50
  store i32 -1, ptr %4, align 4
  store i32 1, ptr %13, align 4
  br label %132

55:                                               ; preds = %50
  %56 = load ptr, ptr %7, align 8, !tbaa !7
  %57 = call i64 @strlen(ptr noundef %56) #12
  %58 = add i64 %57, 1
  store i64 %58, ptr %12, align 8, !tbaa !3
  %59 = load i64, ptr %8, align 8, !tbaa !3
  %60 = load i64, ptr %12, align 8, !tbaa !3
  %61 = call i32 @H5Tset_size(i64 noundef %59, i64 noundef %60)
  %62 = icmp slt i32 %61, 0
  br i1 %62, label %63, label %64

63:                                               ; preds = %55
  br label %104

64:                                               ; preds = %55
  %65 = load i64, ptr %8, align 8, !tbaa !3
  %66 = call i32 @H5Tset_strpad(i64 noundef %65, i32 noundef 0)
  %67 = icmp slt i32 %66, 0
  br i1 %67, label %68, label %69

68:                                               ; preds = %64
  br label %104

69:                                               ; preds = %64
  %70 = call i64 @H5Screate(i32 noundef 0)
  store i64 %70, ptr %9, align 8, !tbaa !3
  %71 = icmp slt i64 %70, 0
  br i1 %71, label %72, label %73

72:                                               ; preds = %69
  br label %104

73:                                               ; preds = %69
  %74 = load i64, ptr %5, align 8, !tbaa !3
  %75 = load ptr, ptr %6, align 8, !tbaa !7
  %76 = load i64, ptr %8, align 8, !tbaa !3
  %77 = load i64, ptr %9, align 8, !tbaa !3
  %78 = call i64 @H5Acreate2(i64 noundef %74, ptr noundef %75, i64 noundef %76, i64 noundef %77, i64 noundef 0, i64 noundef 0)
  store i64 %78, ptr %10, align 8, !tbaa !3
  %79 = icmp slt i64 %78, 0
  br i1 %79, label %80, label %81

80:                                               ; preds = %73
  br label %104

81:                                               ; preds = %73
  %82 = load i64, ptr %10, align 8, !tbaa !3
  %83 = load i64, ptr %8, align 8, !tbaa !3
  %84 = load ptr, ptr %7, align 8, !tbaa !7
  %85 = call i32 @H5Awrite(i64 noundef %82, i64 noundef %83, ptr noundef %84)
  %86 = icmp slt i32 %85, 0
  br i1 %86, label %87, label %88

87:                                               ; preds = %81
  br label %104

88:                                               ; preds = %81
  %89 = load i64, ptr %10, align 8, !tbaa !3
  %90 = call i32 @H5Aclose(i64 noundef %89)
  %91 = icmp slt i32 %90, 0
  br i1 %91, label %92, label %93

92:                                               ; preds = %88
  br label %104

93:                                               ; preds = %88
  %94 = load i64, ptr %9, align 8, !tbaa !3
  %95 = call i32 @H5Sclose(i64 noundef %94)
  %96 = icmp slt i32 %95, 0
  br i1 %96, label %97, label %98

97:                                               ; preds = %93
  br label %104

98:                                               ; preds = %93
  %99 = load i64, ptr %8, align 8, !tbaa !3
  %100 = call i32 @H5Tclose(i64 noundef %99)
  %101 = icmp slt i32 %100, 0
  br i1 %101, label %102, label %103

102:                                              ; preds = %98
  br label %104

103:                                              ; preds = %98
  store i32 0, ptr %4, align 4
  store i32 1, ptr %13, align 4
  br label %132

104:                                              ; preds = %102, %97, %92, %87, %80, %72, %68, %63
  call void @llvm.lifetime.start.p0(i64 4, ptr %14) #11
  call void @llvm.lifetime.start.p0(i64 8, ptr %15) #11
  call void @llvm.lifetime.start.p0(i64 8, ptr %16) #11
  %105 = call i32 @H5Eauto_is_v2(i64 noundef 0, ptr noundef %14)
  %106 = load i32, ptr %14, align 4, !tbaa !10
  %107 = icmp ne i32 %106, 0
  br i1 %107, label %108, label %111

108:                                              ; preds = %104
  %109 = call i32 @H5Eget_auto2(i64 noundef 0, ptr noundef %15, ptr noundef %16)
  %110 = call i32 @H5Eset_auto2(i64 noundef 0, ptr noundef null, ptr noundef null)
  br label %114

111:                                              ; preds = %104
  %112 = call i32 @H5Eget_auto1(ptr noundef %15, ptr noundef %16)
  %113 = call i32 @H5Eset_auto1(ptr noundef null, ptr noundef null)
  br label %114

114:                                              ; preds = %111, %108
  %115 = load i64, ptr %10, align 8, !tbaa !3
  %116 = call i32 @H5Aclose(i64 noundef %115)
  %117 = load i64, ptr %8, align 8, !tbaa !3
  %118 = call i32 @H5Tclose(i64 noundef %117)
  %119 = load i64, ptr %9, align 8, !tbaa !3
  %120 = call i32 @H5Sclose(i64 noundef %119)
  %121 = load i32, ptr %14, align 4, !tbaa !10
  %122 = icmp ne i32 %121, 0
  br i1 %122, label %123, label %127

123:                                              ; preds = %114
  %124 = load ptr, ptr %15, align 8, !tbaa !15
  %125 = load ptr, ptr %16, align 8, !tbaa !14
  %126 = call i32 @H5Eset_auto2(i64 noundef 0, ptr noundef %124, ptr noundef %125)
  br label %131

127:                                              ; preds = %114
  %128 = load ptr, ptr %15, align 8, !tbaa !15
  %129 = load ptr, ptr %16, align 8, !tbaa !14
  %130 = call i32 @H5Eset_auto1(ptr noundef %128, ptr noundef %129)
  br label %131

131:                                              ; preds = %127, %123
  call void @llvm.lifetime.end.p0(i64 8, ptr %16) #11
  call void @llvm.lifetime.end.p0(i64 8, ptr %15) #11
  call void @llvm.lifetime.end.p0(i64 4, ptr %14) #11
  store i32 -1, ptr %4, align 4
  store i32 1, ptr %13, align 4
  br label %132

132:                                              ; preds = %131, %103, %54, %30, %21
  call void @llvm.lifetime.end.p0(i64 8, ptr %12) #11
  call void @llvm.lifetime.end.p0(i64 4, ptr %11) #11
  call void @llvm.lifetime.end.p0(i64 8, ptr %10) #11
  call void @llvm.lifetime.end.p0(i64 8, ptr %9) #11
  call void @llvm.lifetime.end.p0(i64 8, ptr %8) #11
  %133 = load i32, ptr %4, align 4
  ret i32 %133
}