; Function Attrs: nounwind uwtable
define range(i32 -1, 1) i32 @H5LT_set_attribute_string(i64 noundef %0, ptr noundef %1, ptr noundef %2) local_unnamed_addr #0 {
  %4 = alloca i32, align 4
  %5 = alloca %union.anon.4, align 8
  %6 = alloca ptr, align 8
  %7 = tail call i32 @H5Aexists(i64 noundef %0, ptr noundef %1) #20
  %8 = icmp slt i32 %7, 0
  br i1 %8, label %72, label %9

9:                                                ; preds = %3
  %.not = icmp eq i32 %7, 0
  br i1 %.not, label %13, label %10

10:                                               ; preds = %9
  %11 = tail call i32 @H5Adelete(i64 noundef %0, ptr noundef %1) #20
  %12 = icmp slt i32 %11, 0
  br i1 %12, label %72, label %13

13:                                               ; preds = %10, %9
  %14 = load i8, ptr @H5_libinit_g, align 1, !tbaa !10, !range !12, !noundef !13
  %15 = trunc nuw i8 %14 to i1
  %16 = load i8, ptr @H5_libterm_g, align 1, !range !12
  %17 = trunc nuw i8 %16 to i1
  %18 = select i1 %15, i1 true, i1 %17
  br i1 %18, label %21, label %19, !prof !14

19:                                               ; preds = %13
  %20 = tail call i32 @H5open() #20
  br label %21

21:                                               ; preds = %13, %19
  %22 = load i64, ptr @H5T_C_S1_g, align 8, !tbaa !15
  %23 = tail call i64 @H5Tcopy(i64 noundef %22) #20
  %24 = icmp slt i64 %23, 0
  br i1 %24, label %72, label %25

25:                                               ; preds = %21
  %26 = tail call i64 @strlen(ptr noundef nonnull dereferenceable(1) %2) #21
  %27 = add i64 %26, 1
  %28 = tail call i32 @H5Tset_size(i64 noundef %23, i64 noundef %27) #20
  %29 = icmp slt i32 %28, 0
  br i1 %29, label %51, label %30

30:                                               ; preds = %25
  %31 = tail call i32 @H5Tset_strpad(i64 noundef %23, i32 noundef 0) #20
  %32 = icmp slt i32 %31, 0
  br i1 %32, label %51, label %33

33:                                               ; preds = %30
  %34 = tail call i64 @H5Screate(i32 noundef 0) #20
  %35 = icmp slt i64 %34, 0
  br i1 %35, label %51, label %36

36:                                               ; preds = %33
  %37 = tail call i64 @H5Acreate2(i64 noundef %0, ptr noundef %1, i64 noundef %23, i64 noundef %34, i64 noundef 0, i64 noundef 0) #20
  %38 = icmp slt i64 %37, 0
  br i1 %38, label %51, label %39

39:                                               ; preds = %36
  %40 = tail call i32 @H5Awrite(i64 noundef %37, i64 noundef %23, ptr noundef nonnull %2) #20
  %41 = icmp slt i32 %40, 0
  br i1 %41, label %51, label %42

42:                                               ; preds = %39
  %43 = tail call i32 @H5Aclose(i64 noundef %37) #20
  %44 = icmp slt i32 %43, 0
  br i1 %44, label %51, label %45

45:                                               ; preds = %42
  %46 = tail call i32 @H5Sclose(i64 noundef %34) #20
  %47 = icmp slt i32 %46, 0
  br i1 %47, label %51, label %48

48:                                               ; preds = %45
  %49 = tail call i32 @H5Tclose(i64 noundef %23) #20
  %50 = icmp slt i32 %49, 0
  br i1 %50, label %51, label %72

51:                                               ; preds = %48, %45, %42, %39, %36, %33, %30, %25
  %.023 = phi i64 [ -1, %25 ], [ -1, %30 ], [ -1, %33 ], [ %37, %36 ], [ %37, %39 ], [ %37, %42 ], [ %37, %45 ], [ %37, %48 ]
  %.022 = phi i64 [ -1, %25 ], [ -1, %30 ], [ %34, %33 ], [ %34, %36 ], [ %34, %39 ], [ %34, %42 ], [ %34, %45 ], [ %34, %48 ]
  call void @llvm.lifetime.start.p0(i64 4, ptr nonnull %4) #20
  call void @llvm.lifetime.start.p0(i64 8, ptr nonnull %5) #20
  call void @llvm.lifetime.start.p0(i64 8, ptr nonnull %6) #20
  %52 = call i32 @H5Eauto_is_v2(i64 noundef 0, ptr noundef nonnull %4) #20
  %53 = load i32, ptr %4, align 4, !tbaa !3
  %.not29 = icmp eq i32 %53, 0
  br i1 %.not29, label %57, label %54

54:                                               ; preds = %51
  %55 = call i32 @H5Eget_auto2(i64 noundef 0, ptr noundef nonnull %5, ptr noundef nonnull %6) #20
  %56 = call i32 @H5Eset_auto2(i64 noundef 0, ptr noundef null, ptr noundef null) #20
  br label %60

57:                                               ; preds = %51
  %58 = call i32 @H5Eget_auto1(ptr noundef nonnull %5, ptr noundef nonnull %6) #20
  %59 = call i32 @H5Eset_auto1(ptr noundef null, ptr noundef null) #20
  br label %60

60:                                               ; preds = %57, %54
  %61 = call i32 @H5Aclose(i64 noundef %.023) #20
  %62 = call i32 @H5Tclose(i64 noundef %23) #20
  %63 = call i32 @H5Sclose(i64 noundef %.022) #20
  %64 = load i32, ptr %4, align 4, !tbaa !3
  %.not30 = icmp eq i32 %64, 0
  %65 = load ptr, ptr %5, align 8, !tbaa !7
  %66 = load ptr, ptr %6, align 8, !tbaa !8
  br i1 %.not30, label %69, label %67

67:                                               ; preds = %60
  %68 = call i32 @H5Eset_auto2(i64 noundef 0, ptr noundef %65, ptr noundef %66) #20
  br label %71

69:                                               ; preds = %60
  %70 = call i32 @H5Eset_auto1(ptr noundef %65, ptr noundef %66) #20
  br label %71

71:                                               ; preds = %69, %67
  call void @llvm.lifetime.end.p0(i64 8, ptr nonnull %6) #20
  call void @llvm.lifetime.end.p0(i64 8, ptr nonnull %5) #20
  call void @llvm.lifetime.end.p0(i64 4, ptr nonnull %4) #20
  br label %72

72:                                               ; preds = %48, %21, %10, %3, %71
  %.0 = phi i32 [ -1, %71 ], [ -1, %3 ], [ -1, %10 ], [ -1, %21 ], [ 0, %48 ]
  ret i32 %.0
}